target datalayout = "e-m:e-p270:32:32-p271:32:32-p272:64:64-i64:64-i128:128-f80:128-n8:16:32:64-S128"
target triple = "x86_64-pc-linux-gnu"

%struct.anon = type { double, double }
%struct._generic_N_Vector = type { ptr, ptr, ptr }
%struct._N_VectorContent_Serial = type { i64, i32, ptr }

; Function Attrs: nounwind uwtable
define internal i32 @fS(i32 noundef %0, double noundef %1, ptr noundef %2, ptr noundef %3, ptr noundef %4, ptr noundef %5, ptr noundef %6, ptr noundef %7, ptr noundef %8) #0 {
  %10 = alloca i32, align 4
  %11 = alloca double, align 8
  %12 = alloca ptr, align 8
  %13 = alloca ptr, align 8
  %14 = alloca ptr, align 8
  %15 = alloca ptr, align 8
  %16 = alloca ptr, align 8
  %17 = alloca ptr, align 8
  %18 = alloca ptr, align 8
  %19 = alloca ptr, align 8
  %20 = alloca double, align 8
  %21 = alloca double, align 8
  %22 = alloca double, align 8
  %23 = alloca double, align 8
  %24 = alloca double, align 8
  %25 = alloca double, align 8
  %26 = alloca double, align 8
  %27 = alloca double, align 8
  %28 = alloca double, align 8
  %29 = alloca double, align 8
  %30 = alloca double, align 8
  store i32 %0, ptr %10, align 4, !tbaa !4
  store double %1, ptr %11, align 8, !tbaa !24
  store ptr %2, ptr %12, align 8, !tbaa !12
  store ptr %3, ptr %13, align 8, !tbaa !12
  store ptr %4, ptr %14, align 8, !tbaa !27
  store ptr %5, ptr %15, align 8, !tbaa !27
  store ptr %6, ptr %16, align 8, !tbaa !11
  store ptr %7, ptr %17, align 8, !tbaa !12
  store ptr %8, ptr %18, align 8, !tbaa !12
  call void @llvm.lifetime.start.p0(i64 8, ptr %19) #6
  call void @llvm.lifetime.start.p0(i64 8, ptr %20) #6
  call void @llvm.lifetime.start.p0(i64 8, ptr %21) #6
  call void @llvm.lifetime.start.p0(i64 8, ptr %22) #6
  call void @llvm.lifetime.start.p0(i64 8, ptr %23) #6
  call void @llvm.lifetime.start.p0(i64 8, ptr %24) #6
  call void @llvm.lifetime.start.p0(i64 8, ptr %25) #6
  call void @llvm.lifetime.start.p0(i64 8, ptr %26) #6
  call void @llvm.lifetime.start.p0(i64 8, ptr %27) #6
  call void @llvm.lifetime.start.p0(i64 8, ptr %28) #6
  call void @llvm.lifetime.start.p0(i64 8, ptr %29) #6
  call void @llvm.lifetime.start.p0(i64 8, ptr %30) #6
  %31 = load ptr, ptr %16, align 8, !tbaa !11
  store ptr %31, ptr %19, align 8, !tbaa !11
  %32 = load ptr, ptr %19, align 8, !tbaa !11
  %33 = getelementptr inbounds nuw %struct.anon, ptr %32, i32 0, i32 0
  %34 = load double, ptr %33, align 8, !tbaa !18
  store double %34, ptr %29, align 8, !tbaa !24
  %35 = load ptr, ptr %19, align 8, !tbaa !11
  %36 = getelementptr inbounds nuw %struct.anon, ptr %35, i32 0, i32 1
  %37 = load double, ptr %36, align 8, !tbaa !21
  store double %37, ptr %30, align 8, !tbaa !24
  %38 = load ptr, ptr %12, align 8, !tbaa !12
  %39 = getelementptr inbounds nuw %struct._generic_N_Vector, ptr %38, i32 0, i32 0
  %40 = load ptr, ptr %39, align 8, !tbaa !29
  %41 = getelementptr inbounds nuw %struct._N_VectorContent_Serial, ptr %40, i32 0, i32 2
  %42 = load ptr, ptr %41, align 8, !tbaa !32
  %43 = getelementptr inbounds double, ptr %42, i64 0
  %44 = load double, ptr %43, align 8, !tbaa !24
  store double %44, ptr %20, align 8, !tbaa !24
  %45 = load ptr, ptr %12, align 8, !tbaa !12
  %46 = getelementptr inbounds nuw %struct._generic_N_Vector, ptr %45, i32 0, i32 0
  %47 = load ptr, ptr %46, align 8, !tbaa !29
  %48 = getelementptr inbounds nuw %struct._N_VectorContent_Serial, ptr %47, i32 0, i32 2
  %49 = load ptr, ptr %48, align 8, !tbaa !32
  %50 = getelementptr inbounds double, ptr %49, i64 1
  %51 = load double, ptr %50, align 8, !tbaa !24
  store double %51, ptr %21, align 8, !tbaa !24
  %52 = load ptr, ptr %12, align 8, !tbaa !12
  %53 = getelementptr inbounds nuw %struct._generic_N_Vector, ptr %52, i32 0, i32 0
  %54 = load ptr, ptr %53, align 8, !tbaa !29
  %55 = getelementptr inbounds nuw %struct._N_VectorContent_Serial, ptr %54, i32 0, i32 2
  %56 = load ptr, ptr %55, align 8, !tbaa !32
  %57 = getelementptr inbounds double, ptr %56, i64 2
  %58 = load double, ptr %57, align 8, !tbaa !24
  store double %58, ptr %22, align 8, !tbaa !24
  %59 = load ptr, ptr %14, align 8, !tbaa !27
  %60 = getelementptr inbounds ptr, ptr %59, i64 0
  %61 = load ptr, ptr %60, align 8, !tbaa !12
  %62 = getelementptr inbounds nuw %struct._generic_N_Vector, ptr %61, i32 0, i32 0
  %63 = load ptr, ptr %62, align 8, !tbaa !29
  %64 = getelementptr inbounds nuw %struct._N_VectorContent_Serial, ptr %63, i32 0, i32 2
  %65 = load ptr, ptr %64, align 8, !tbaa !32
  %66 = getelementptr inbounds double, ptr %65, i64 0
  %67 = load double, ptr %66, align 8, !tbaa !24
  store double %67, ptr %23, align 8, !tbaa !24
  %68 = load ptr, ptr %14, align 8, !tbaa !27
  %69 = getelementptr inbounds ptr, ptr %68, i64 0
  %70 = load ptr, ptr %69, align 8, !tbaa !12
  %71 = getelementptr inbounds nuw %struct._generic_N_Vector, ptr %70, i32 0, i32 0
  %72 = load ptr, ptr %71, align 8, !tbaa !29
  %73 = getelementptr inbounds nuw %struct._N_VectorContent_Serial, ptr %72, i32 0, i32 2
  %74 = load ptr, ptr %73, align 8, !tbaa !32
  %75 = getelementptr inbounds double, ptr %74, i64 1
  %76 = load double, ptr %75, align 8, !tbaa !24
  store double %76, ptr %24, align 8, !tbaa !24
  %77 = load ptr, ptr %14, align 8, !tbaa !27
  %78 = getelementptr inbounds ptr, ptr %77, i64 0
  %79 = load ptr, ptr %78, align 8, !tbaa !12
  %80 = getelementptr inbounds nuw %struct._generic_N_Vector, ptr %79, i32 0, i32 0
  %81 = load ptr, ptr %80, align 8, !tbaa !29
  %82 = getelementptr inbounds nuw %struct._N_VectorContent_Serial, ptr %81, i32 0, i32 2
  %83 = load ptr, ptr %82, align 8, !tbaa !32
  %84 = getelementptr inbounds double, ptr %83, i64 2
  %85 = load double, ptr %84, align 8, !tbaa !24
  store double %85, ptr %25, align 8, !tbaa !24
  %86 = load double, ptr %29, align 8, !tbaa !24
  %87 = fmul double -2.000000e+00, %86
  %88 = load double, ptr %20, align 8, !tbaa !24
  %89 = fmul double %87, %88
  %90 = load double, ptr %23, align 8, !tbaa !24
  %91 = load double, ptr %25, align 8, !tbaa !24
  %92 = fneg double %91
  %93 = call double @llvm.fmuladd.f64(double %89, double %90, double %92)
  store double %93, ptr %26, align 8, !tbaa !24
  %94 = load double, ptr %24, align 8, !tbaa !24
  %95 = fneg double %94
  store double %95, ptr %27, align 8, !tbaa !24
  %96 = load double, ptr %30, align 8, !tbaa !24
  %97 = fneg double %96
  %98 = load double, ptr %30, align 8, !tbaa !24
  %99 = fmul double %97, %98
  %100 = load double, ptr %22, align 8, !tbaa !24
  %101 = fmul double %99, %100
  %102 = load double, ptr %24, align 8, !tbaa !24
  %103 = load double, ptr %30, align 8, !tbaa !24
  %104 = load double, ptr %30, align 8, !tbaa !24
  %105 = fmul double %103, %104
  %106 = load double, ptr %21, align 8, !tbaa !24
  %107 = fmul double %105, %106
  %108 = load double, ptr %25, align 8, !tbaa !24
  %109 = fmul double %107, %108
  %110 = fneg double %109
  %111 = call double @llvm.fmuladd.f64(double %101, double %102, double %110)
  store double %111, ptr %28, align 8, !tbaa !24
  %112 = load double, ptr %26, align 8, !tbaa !24
  %113 = load double, ptr %20, align 8, !tbaa !24
  %114 = load double, ptr %20, align 8, !tbaa !24
  %115 = fneg double %113
  %116 = call double @llvm.fmuladd.f64(double %115, double %114, double %112)
  %117 = load ptr, ptr %15, align 8, !tbaa !27
  %118 = getelementptr inbounds ptr, ptr %117, i64 0
  %119 = load ptr, ptr %118, align 8, !tbaa !12
  %120 = getelementptr inbounds nuw %struct._generic_N_Vector, ptr %119, i32 0, i32 0
  %121 = load ptr, ptr %120, align 8, !tbaa !29
  %122 = getelementptr inbounds nuw %struct._N_VectorContent_Serial, ptr %121, i32 0, i32 2
  %123 = load ptr, ptr %122, align 8, !tbaa !32
  %124 = getelementptr inbounds double, ptr %123, i64 0
  store double %116, ptr %124, align 8, !tbaa !24
  %125 = load double, ptr %27, align 8, !tbaa !24
  %126 = load ptr, ptr %15, align 8, !tbaa !27
  %127 = getelementptr inbounds ptr, ptr %126, i64 0
  %128 = load ptr, ptr %127, align 8, !tbaa !12
  %129 = getelementptr inbounds nuw %struct._generic_N_Vector, ptr %128, i32 0, i32 0
  %130 = load ptr, ptr %129, align 8, !tbaa !29
  %131 = getelementptr inbounds nuw %struct._N_VectorContent_Serial, ptr %130, i32 0, i32 2
  %132 = load ptr, ptr %131, align 8, !tbaa !32
  %133 = getelementptr inbounds double, ptr %132, i64 1
  store double %125, ptr %133, align 8, !tbaa !24
  %134 = load double, ptr %28, align 8, !tbaa !24
  %135 = load ptr, ptr %15, align 8, !tbaa !27
  %136 = getelementptr inbounds ptr, ptr %135, i64 0
  %137 = load ptr, ptr %136, align 8, !tbaa !12
  %138 = getelementptr inbounds nuw %struct._generic_N_Vector, ptr %137, i32 0, i32 0
  %139 = load ptr, ptr %138, align 8, !tbaa !29
  %140 = getelementptr inbounds nuw %struct._N_VectorContent_Serial, ptr %139, i32 0, i32 2
  %141 = load ptr, ptr %140, align 8, !tbaa !32
  %142 = getelementptr inbounds double, ptr %141, i64 2
  store double %134, ptr %142, align 8, !tbaa !24
  %143 = load ptr, ptr %14, align 8, !tbaa !27
  %144 = getelementptr inbounds ptr, ptr %143, i64 1
  %145 = load ptr, ptr %144, align 8, !tbaa !12
  %146 = getelementptr inbounds nuw %struct._generic_N_Vector, ptr %145, i32 0, i32 0
  %147 = load ptr, ptr %146, align 8, !tbaa !29
  %148 = getelementptr inbounds nuw %struct._N_VectorContent_Serial, ptr %147, i32 0, i32 2
  %149 = load ptr, ptr %148, align 8, !tbaa !32
  %150 = getelementptr inbounds double, ptr %149, i64 0
  %151 = load double, ptr %150, align 8, !tbaa !24
  store double %151, ptr %23, align 8, !tbaa !24
  %152 = load ptr, ptr %14, align 8, !tbaa !27
  %153 = getelementptr inbounds ptr, ptr %152, i64 1
  %154 = load ptr, ptr %153, align 8, !tbaa !12
  %155 = getelementptr inbounds nuw %struct._generic_N_Vector, ptr %154, i32 0, i32 0
  %156 = load ptr, ptr %155, align 8, !tbaa !29
  %157 = getelementptr inbounds nuw %struct._N_VectorContent_Serial, ptr %156, i32 0, i32 2
  %158 = load ptr, ptr %157, align 8, !tbaa !32
  %159 = getelementptr inbounds double, ptr %158, i64 1
  %160 = load double, ptr %159, align 8, !tbaa !24
  store double %160, ptr %24, align 8, !tbaa !24
  %161 = load ptr, ptr %14, align 8, !tbaa !27
  %162 = getelementptr inbounds ptr, ptr %161, i64 1
  %163 = load ptr, ptr %162, align 8, !tbaa !12
  %164 = getelementptr inbounds nuw %struct._generic_N_Vector, ptr %163, i32 0, i32 0
  %165 = load ptr, ptr %164, align 8, !tbaa !29
  %166 = getelementptr inbounds nuw %struct._N_VectorContent_Serial, ptr %165, i32 0, i32 2
  %167 = load ptr, ptr %166, align 8, !tbaa !32
  %168 = getelementptr inbounds double, ptr %167, i64 2
  %169 = load double, ptr %168, align 8, !tbaa !24
  store double %169, ptr %25, align 8, !tbaa !24
  %170 = load double, ptr %29, align 8, !tbaa !24
  %171 = fmul double -2.000000e+00, %170
  %172 = load double, ptr %20, align 8, !tbaa !24
  %173 = fmul double %171, %172
  %174 = load double, ptr %23, align 8, !tbaa !24
  %175 = load double, ptr %25, align 8, !tbaa !24
  %176 = fneg double %175
  %177 = call double @llvm.fmuladd.f64(double %173, double %174, double %176)
  store double %177, ptr %26, align 8, !tbaa !24
  %178 = load double, ptr %24, align 8, !tbaa !24
  %179 = fneg double %178
  store double %179, ptr %27, align 8, !tbaa !24
  %180 = load double, ptr %30, align 8, !tbaa !24
  %181 = fneg double %180
  %182 = load double, ptr %30, align 8, !tbaa !24
  %183 = fmul double %181, %182
  %184 = load double, ptr %22, align 8, !tbaa !24
  %185 = fmul double %183, %184
  %186 = load double, ptr %24, align 8, !tbaa !24
  %187 = load double, ptr %30, align 8, !tbaa !24
  %188 = load double, ptr %30, align 8, !tbaa !24
  %189 = fmul double %187, %188
  %190 = load double, ptr %21, align 8, !tbaa !24
  %191 = fmul double %189, %190
  %192 = load double, ptr %25, align 8, !tbaa !24
  %193 = fmul double %191, %192
  %194 = fneg double %193
  %195 = call double @llvm.fmuladd.f64(double %185, double %186, double %194)
  store double %195, ptr %28, align 8, !tbaa !24
  %196 = load double, ptr %26, align 8, !tbaa !24
  %197 = load ptr, ptr %15, align 8, !tbaa !27
  %198 = getelementptr inbounds ptr, ptr %197, i64 1
  %199 = load ptr, ptr %198, align 8, !tbaa !12
  %200 = getelementptr inbounds nuw %struct._generic_N_Vector, ptr %199, i32 0, i32 0
  %201 = load ptr, ptr %200, align 8, !tbaa !29
  %202 = getelementptr inbounds nuw %struct._N_VectorContent_Serial, ptr %201, i32 0, i32 2
  %203 = load ptr, ptr %202, align 8, !tbaa !32
  %204 = getelementptr inbounds double, ptr %203, i64 0
  store double %196, ptr %204, align 8, !tbaa !24
  %205 = load double, ptr %27, align 8, !tbaa !24
  %206 = load ptr, ptr %15, align 8, !tbaa !27
  %207 = getelementptr inbounds ptr, ptr %206, i64 1
  %208 = load ptr, ptr %207, align 8, !tbaa !12
  %209 = getelementptr inbounds nuw %struct._generic_N_Vector, ptr %208, i32 0, i32 0
  %210 = load ptr, ptr %209, align 8, !tbaa !29
  %211 = getelementptr inbounds nuw %struct._N_VectorContent_Serial, ptr %210, i32 0, i32 2
  %212 = load ptr, ptr %211, align 8, !tbaa !32
  %213 = getelementptr inbounds double, ptr %212, i64 1
  store double %205, ptr %213, align 8, !tbaa !24
  %214 = load double, ptr %28, align 8, !tbaa !24
  %215 = load double, ptr %30, align 8, !tbaa !24
  %216 = fmul double 2.000000e+00, %215
  %217 = load double, ptr %21, align 8, !tbaa !24
  %218 = fmul double %216, %217
  %219 = load double, ptr %22, align 8, !tbaa !24
  %220 = fneg double %218
  %221 = call double @llvm.fmuladd.f64(double %220, double %219, double %214)
  %222 = load ptr, ptr %15, align 8, !tbaa !27
  %223 = getelementptr inbounds ptr, ptr %222, i64 1
  %224 = load ptr, ptr %223, align 8, !tbaa !12
  %225 = getelementptr inbounds nuw %struct._generic_N_Vector, ptr %224, i32 0, i32 0
  %226 = load ptr, ptr %225, align 8, !tbaa !29
  %227 = getelementptr inbounds nuw %struct._N_VectorContent_Serial, ptr %226, i32 0, i32 2
  %228 = load ptr, ptr %227, align 8, !tbaa !32
  %229 = getelementptr inbounds double, ptr %228, i64 2
  store double %221, ptr %229, align 8, !tbaa !24
  call void @llvm.lifetime.end.p0(i64 8, ptr %30) #6
  call void @llvm.lifetime.end.p0(i64 8, ptr %29) #6
  call void @llvm.lifetime.end.p0(i64 8, ptr %28) #6
  call void @llvm.lifetime.end.p0(i64 8, ptr %27) #6
  call void @llvm.lifetime.end.p0(i64 8, ptr %26) #6
  call void @llvm.lifetime.end.p0(i64 8, ptr %25) #6
  call void @llvm.lifetime.end.p0(i64 8, ptr %24) #6
  call void @llvm.lifetime.end.p0(i64 8, ptr %23) #6
  call void @llvm.lifetime.end.p0(i64 8, ptr %22) #6
  call void @llvm.lifetime.end.p0(i64 8, ptr %21) #6
  call void @llvm.lifetime.end.p0(i64 8, ptr %20) #6
  call void @llvm.lifetime.end.p0(i64 8, ptr %19) #6
  ret i32 0
}