; Function Attrs: mustprogress nofree norecurse nosync nounwind willreturn memory(readwrite, inaccessiblemem: none) uwtable
define internal noundef i32 @fS(i32 %0, double %1, ptr noundef readonly captures(none) %2, ptr readnone captures(none) %3, ptr noundef readonly captures(none) %4, ptr noundef readonly captures(none) %5, ptr noundef readonly captures(none) %6, ptr readnone captures(none) %7, ptr readnone captures(none) %8) #4 {
  %10 = load double, ptr %6, align 8, !tbaa !8
  %11 = getelementptr inbounds nuw i8, ptr %6, i64 8
  %12 = load double, ptr %11, align 8, !tbaa !11
  %13 = load ptr, ptr %2, align 8, !tbaa !18
  %14 = getelementptr inbounds nuw i8, ptr %13, i64 16
  %15 = load ptr, ptr %14, align 8, !tbaa !21
  %16 = load double, ptr %15, align 8, !tbaa !26
  %17 = getelementptr inbounds nuw i8, ptr %15, i64 8
  %18 = load double, ptr %17, align 8, !tbaa !26
  %19 = getelementptr inbounds nuw i8, ptr %15, i64 16
  %20 = load double, ptr %19, align 8, !tbaa !26
  %21 = load ptr, ptr %4, align 8, !tbaa !16
  %22 = load ptr, ptr %21, align 8, !tbaa !18
  %23 = getelementptr inbounds nuw i8, ptr %22, i64 16
  %24 = load ptr, ptr %23, align 8, !tbaa !21
  %25 = load double, ptr %24, align 8, !tbaa !26
  %26 = getelementptr inbounds nuw i8, ptr %24, i64 8
  %27 = load double, ptr %26, align 8, !tbaa !26
  %28 = getelementptr inbounds nuw i8, ptr %24, i64 16
  %29 = load double, ptr %28, align 8, !tbaa !26
  %30 = fmul double %10, -2.000000e+00
  %31 = fmul double %30, %16
  %32 = fneg double %29
  %33 = tail call double @llvm.fmuladd.f64(double %31, double %25, double %32)
  %34 = fneg double %27
  %35 = fneg double %12
  %36 = fmul double %12, %35
  %37 = fmul double %36, %20
  %38 = fmul double %12, %12
  %39 = fmul double %38, %18
  %40 = fmul double %39, %32
  %41 = tail call double @llvm.fmuladd.f64(double %37, double %27, double %40)
  %42 = fneg double %16
  %43 = tail call double @llvm.fmuladd.f64(double %42, double %16, double %33)
  %44 = load ptr, ptr %5, align 8, !tbaa !16
  %45 = load ptr, ptr %44, align 8, !tbaa !18
  %46 = getelementptr inbounds nuw i8, ptr %45, i64 16
  %47 = load ptr, ptr %46, align 8, !tbaa !21
  store double %43, ptr %47, align 8, !tbaa !26
  %48 = getelementptr inbounds nuw i8, ptr %47, i64 8
  store double %34, ptr %48, align 8, !tbaa !26
  %49 = getelementptr inbounds nuw i8, ptr %47, i64 16
  store double %41, ptr %49, align 8, !tbaa !26
  %50 = getelementptr inbounds nuw i8, ptr %4, i64 8
  %51 = load ptr, ptr %50, align 8, !tbaa !16
  %52 = load ptr, ptr %51, align 8, !tbaa !18
  %53 = getelementptr inbounds nuw i8, ptr %52, i64 16
  %54 = load ptr, ptr %53, align 8, !tbaa !21
  %55 = load double, ptr %54, align 8, !tbaa !26
  %56 = getelementptr inbounds nuw i8, ptr %54, i64 8
  %57 = load double, ptr %56, align 8, !tbaa !26
  %58 = getelementptr inbounds nuw i8, ptr %54, i64 16
  %59 = load double, ptr %58, align 8, !tbaa !26
  %60 = fneg double %59
  %61 = tail call double @llvm.fmuladd.f64(double %31, double %55, double %60)
  %62 = fneg double %57
  %63 = fmul double %39, %60
  %64 = tail call double @llvm.fmuladd.f64(double %37, double %57, double %63)
  %65 = getelementptr inbounds nuw i8, ptr %5, i64 8
  %66 = load ptr, ptr %65, align 8, !tbaa !16
  %67 = load ptr, ptr %66, align 8, !tbaa !18
  %68 = getelementptr inbounds nuw i8, ptr %67, i64 16
  %69 = load ptr, ptr %68, align 8, !tbaa !21
  store double %61, ptr %69, align 8, !tbaa !26
  %70 = getelementptr inbounds nuw i8, ptr %69, i64 8
  store double %62, ptr %70, align 8, !tbaa !26
  %71 = fmul double %12, 2.000000e+00
  %72 = fneg double %18
  %73 = fmul double %71, %72
  %74 = tail call double @llvm.fmuladd.f64(double %73, double %20, double %64)
  %75 = getelementptr inbounds nuw i8, ptr %69, i64 16
  store double %74, ptr %75, align 8, !tbaa !26
  ret i32 0
}